; Function Attrs: mustprogress nofree norecurse nosync nounwind willreturn memory(readwrite, inaccessiblemem: none) uwtable
define dso_local noundef range(i32 0, 2) i32 @_Z12lua_isstringP9lua_Statei(ptr noundef readonly captures(none) %0, i32 noundef %1) local_unnamed_addr #0 {
  %3 = icmp sgt i32 %1, 0
  br i1 %3, label %4, label %12

4:                                                ; preds = %2
  %5 = getelementptr inbounds nuw i8, ptr %0, i64 16
  %6 = load ptr, ptr %5, align 8, !tbaa !4
  %7 = zext nneg i32 %1 to i64
  %8 = getelementptr %struct.lua_TValue, ptr %6, i64 %7
  %9 = getelementptr i8, ptr %8, i64 -16
  %10 = getelementptr inbounds nuw i8, ptr %0, i64 8
  %11 = load ptr, ptr %10, align 8, !tbaa !19
  %.not.i.i = icmp ult ptr %9, %11
  br i1 %.not.i.i, label %_ZL10index2addrP9lua_Statei.exit.i, label %_Z8lua_typeP9lua_Statei.exit

12:                                               ; preds = %2
  %13 = icmp sgt i32 %1, -10000
  br i1 %13, label %14, label %19

14:                                               ; preds = %12
  %15 = getelementptr inbounds nuw i8, ptr %0, i64 8
  %16 = load ptr, ptr %15, align 8, !tbaa !19
  %17 = sext i32 %1 to i64
  %18 = getelementptr inbounds %struct.lua_TValue, ptr %16, i64 %17
  br label %_ZL10index2addrP9lua_Statei.exit.i

19:                                               ; preds = %12
  %20 = tail call fastcc noundef ptr @_ZL11pseudo2addrP9lua_Statei(ptr noundef readonly %0, i32 noundef %1)
  br label %_ZL10index2addrP9lua_Statei.exit.i

_ZL10index2addrP9lua_Statei.exit.i:               ; preds = %19, %14, %4
  %.1.i.i = phi ptr [ %18, %14 ], [ %20, %19 ], [ %9, %4 ]
  %21 = icmp eq ptr %.1.i.i, @luaO_nilobject_
  br i1 %21, label %_Z8lua_typeP9lua_Statei.exit, label %22

22:                                               ; preds = %_ZL10index2addrP9lua_Statei.exit.i
  %23 = getelementptr inbounds nuw i8, ptr %.1.i.i, i64 12
  %24 = load i32, ptr %23, align 4, !tbaa !47
  br label %_Z8lua_typeP9lua_Statei.exit

_Z8lua_typeP9lua_Statei.exit:                     ; preds = %4, %_ZL10index2addrP9lua_Statei.exit.i, %22
  %25 = phi i32 [ %24, %22 ], [ -1, %_ZL10index2addrP9lua_Statei.exit.i ], [ -1, %4 ]
  %26 = icmp eq i32 %25, 5
  %27 = icmp eq i32 %25, 3
  %28 = or i1 %26, %27
  %29 = zext i1 %28 to i32
  ret i32 %29
}